target datalayout = "e-m:e-p270:32:32-p271:32:32-p272:64:64-i64:64-i128:128-f80:128-n8:16:32:64-S128"
target triple = "x86_64-pc-linux-gnu"

%struct._sapi_module_struct = type { ptr, ptr, ptr, ptr, ptr, ptr, ptr, ptr, ptr, ptr, ptr, ptr, ptr, ptr, ptr, ptr, ptr, ptr, ptr, ptr, ptr, ptr, ptr, ptr, i32, i32, ptr, ptr, ptr, ptr, ptr, ptr, i32, ptr, ptr, ptr }
%struct._sapi_globals_struct = type { ptr, %struct.sapi_request_info, %struct.sapi_headers_struct, i64, i8, i8, %struct.stat, ptr, ptr, ptr, i64, i32, i8, double, %struct._zend_array, %struct._zval_struct, %struct._zend_fcall_info_cache, %struct.sapi_request_parse_body_context }
%struct.sapi_request_info = type { ptr, ptr, ptr, i64, ptr, ptr, ptr, ptr, i8, i8, i8, ptr, ptr, ptr, ptr, ptr, ptr, ptr, i32, i32, ptr, i32 }
%struct.sapi_headers_struct = type { %struct._zend_llist, i32, i8, ptr, ptr }
%struct._zend_llist = type { ptr, ptr, i64, i64, ptr, i8, ptr }
%struct.stat = type { i64, i64, i64, i32, i32, i32, i32, i64, i64, i64, i64, %struct.timespec, %struct.timespec, %struct.timespec, [3 x i64] }
%struct.timespec = type { i64, i64 }
%struct._zend_array = type { %struct._zend_refcounted_h, %union.anon.0, i32, %union.anon.1, i32, i32, i32, i32, i64, ptr }
%struct._zend_refcounted_h = type { i32, %union.anon }
%union.anon = type { i32 }
%union.anon.0 = type { i32 }
%union.anon.1 = type { ptr }
%struct._zval_struct = type { %union._zend_value, %union.anon.3, %union.anon.6 }
%union._zend_value = type { i64 }
%union.anon.3 = type { i32 }
%union.anon.6 = type { i32 }
%struct._zend_fcall_info_cache = type { ptr, ptr, ptr, ptr, ptr }
%struct.sapi_request_parse_body_context = type { i8, [5 x %struct.anon.7] }
%struct.anon.7 = type { i8, i64 }
%struct._sapi_post_entry = type { ptr, i32, ptr, ptr }

@sapi_module = dso_local global %struct._sapi_module_struct zeroinitializer, align 8
@sapi_globals = dso_local global %struct._sapi_globals_struct zeroinitializer, align 8
@.str.1 = private unnamed_addr constant [32 x i8] c"Unsupported content type:  '%s'\00", align 1

; Function Attrs: alwaysinline nounwind uwtable
define internal ptr @zend_hash_str_find_ptr(ptr noundef %0, ptr noundef %1, i64 noundef %2) #5 {
  %4 = alloca ptr, align 8
  %5 = alloca ptr, align 8
  %6 = alloca ptr, align 8
  %7 = alloca i64, align 8
  %8 = alloca ptr, align 8
  %9 = alloca i32, align 4
  store ptr %0, ptr %5, align 8, !tbaa !94
  store ptr %1, ptr %6, align 8, !tbaa !15
  store i64 %2, ptr %7, align 8, !tbaa !95
  call void @llvm.lifetime.start.p0(i64 8, ptr %8) #15
  %10 = load ptr, ptr %5, align 8, !tbaa !94
  %11 = load ptr, ptr %6, align 8, !tbaa !15
  %12 = load i64, ptr %7, align 8, !tbaa !95
  %13 = call ptr @zend_hash_str_find(ptr noundef %10, ptr noundef %11, i64 noundef %12)
  store ptr %13, ptr %8, align 8, !tbaa !26
  %14 = load ptr, ptr %8, align 8, !tbaa !26
  %15 = icmp ne ptr %14, null
  br i1 %15, label %16, label %24

16:                                               ; preds = %3
  %17 = load ptr, ptr %8, align 8, !tbaa !26
  %18 = getelementptr inbounds nuw %struct._zval_struct, ptr %17, i32 0, i32 0
  %19 = load ptr, ptr %18, align 8, !tbaa !28
  %20 = icmp ne ptr %19, null
  call void @llvm.assume(i1 %20)
  %21 = load ptr, ptr %8, align 8, !tbaa !26
  %22 = getelementptr inbounds nuw %struct._zval_struct, ptr %21, i32 0, i32 0
  %23 = load ptr, ptr %22, align 8, !tbaa !28
  store ptr %23, ptr %4, align 8
  store i32 1, ptr %9, align 4
  br label %25

24:                                               ; preds = %3
  store ptr null, ptr %4, align 8
  store i32 1, ptr %9, align 4
  br label %25

25:                                               ; preds = %24, %16
  call void @llvm.lifetime.end.p0(i64 8, ptr %8) #15
  %26 = load ptr, ptr %4, align 8
  ret ptr %26
}

; Function Attrs: nounwind uwtable
define dso_local void @sapi_read_post_data() #0 {
  %1 = alloca ptr, align 8
  %2 = alloca i32, align 4
  %3 = alloca ptr, align 8
  %4 = alloca ptr, align 8
  %5 = alloca i8, align 1
  %6 = alloca ptr, align 8
  %7 = alloca i32, align 4
  %8 = alloca i32, align 4
  %9 = alloca i32, align 4
  call void @llvm.lifetime.start.p0(i64 8, ptr %1) #15
  call void @llvm.lifetime.start.p0(i64 4, ptr %2) #15
  %10 = load ptr, ptr getelementptr inbounds nuw (%struct.sapi_request_info, ptr getelementptr inbounds nuw (%struct._sapi_globals_struct, ptr @sapi_globals, i32 0, i32 1), i32 0, i32 7), align 8, !tbaa !87
  %11 = call i64 @strlen(ptr noundef %10) #16
  %12 = trunc i64 %11 to i32
  store i32 %12, ptr %2, align 4, !tbaa !17
  call void @llvm.lifetime.start.p0(i64 8, ptr %3) #15
  %13 = load ptr, ptr getelementptr inbounds nuw (%struct.sapi_request_info, ptr getelementptr inbounds nuw (%struct._sapi_globals_struct, ptr @sapi_globals, i32 0, i32 1), i32 0, i32 7), align 8, !tbaa !87
  %14 = load i32, ptr %2, align 4, !tbaa !17
  %15 = zext i32 %14 to i64
  %16 = call noalias ptr @_estrndup(ptr noundef %13, i64 noundef %15)
  store ptr %16, ptr %3, align 8, !tbaa !15
  call void @llvm.lifetime.start.p0(i64 8, ptr %4) #15
  call void @llvm.lifetime.start.p0(i64 1, ptr %5) #15
  store i8 0, ptr %5, align 1, !tbaa !28
  call void @llvm.lifetime.start.p0(i64 8, ptr %6) #15
  store ptr null, ptr %6, align 8, !tbaa !16
  %17 = load ptr, ptr %3, align 8, !tbaa !15
  store ptr %17, ptr %4, align 8, !tbaa !15
  br label %18

18:                                               ; preds = %53, %0
  %19 = load ptr, ptr %4, align 8, !tbaa !15
  %20 = load ptr, ptr %3, align 8, !tbaa !15
  %21 = load i32, ptr %2, align 4, !tbaa !17
  %22 = zext i32 %21 to i64
  %23 = getelementptr inbounds nuw i8, ptr %20, i64 %22
  %24 = icmp ult ptr %19, %23
  br i1 %24, label %25, label %56

25:                                               ; preds = %18
  %26 = load ptr, ptr %4, align 8, !tbaa !15
  %27 = load i8, ptr %26, align 1, !tbaa !28
  %28 = sext i8 %27 to i32
  switch i32 %28, label %39 [
    i32 59, label %29
    i32 44, label %29
    i32 32, label %29
  ]

29:                                               ; preds = %25, %25, %25
  %30 = load ptr, ptr %4, align 8, !tbaa !15
  %31 = load ptr, ptr %3, align 8, !tbaa !15
  %32 = ptrtoint ptr %30 to i64
  %33 = ptrtoint ptr %31 to i64
  %34 = sub i64 %32, %33
  %35 = trunc i64 %34 to i32
  store i32 %35, ptr %2, align 4, !tbaa !17
  %36 = load ptr, ptr %4, align 8, !tbaa !15
  %37 = load i8, ptr %36, align 1, !tbaa !28
  store i8 %37, ptr %5, align 1, !tbaa !28
  %38 = load ptr, ptr %4, align 8, !tbaa !15
  store i8 0, ptr %38, align 1, !tbaa !28
  br label %52

39:                                               ; preds = %25
  call void @llvm.lifetime.start.p0(i64 4, ptr %7) #15
  %40 = call ptr @__ctype_tolower_loc() #17
  %41 = load ptr, ptr %40, align 8, !tbaa !88
  %42 = load ptr, ptr %4, align 8, !tbaa !15
  %43 = load i8, ptr %42, align 1, !tbaa !28
  %44 = sext i8 %43 to i32
  %45 = sext i32 %44 to i64
  %46 = getelementptr inbounds i32, ptr %41, i64 %45
  %47 = load i32, ptr %46, align 4, !tbaa !17
  store i32 %47, ptr %7, align 4, !tbaa !17
  %48 = load i32, ptr %7, align 4, !tbaa !17
  store i32 %48, ptr %8, align 4, !tbaa !17
  call void @llvm.lifetime.end.p0(i64 4, ptr %7) #15
  %49 = load i32, ptr %8, align 4, !tbaa !17
  %50 = trunc i32 %49 to i8
  %51 = load ptr, ptr %4, align 8, !tbaa !15
  store i8 %50, ptr %51, align 1, !tbaa !28
  br label %52

52:                                               ; preds = %39, %29
  br label %53

53:                                               ; preds = %52
  %54 = load ptr, ptr %4, align 8, !tbaa !15
  %55 = getelementptr inbounds nuw i8, ptr %54, i32 1
  store ptr %55, ptr %4, align 8, !tbaa !15
  br label %18

56:                                               ; preds = %18
  %57 = load ptr, ptr %3, align 8, !tbaa !15
  %58 = load i32, ptr %2, align 4, !tbaa !17
  %59 = zext i32 %58 to i64
  %60 = call ptr @zend_hash_str_find_ptr(ptr noundef getelementptr inbounds nuw (%struct._sapi_globals_struct, ptr @sapi_globals, i32 0, i32 14), ptr noundef %57, i64 noundef %59)
  store ptr %60, ptr %1, align 8, !tbaa !90
  %61 = icmp ne ptr %60, null
  br i1 %61, label %62, label %67

62:                                               ; preds = %56
  %63 = load ptr, ptr %1, align 8, !tbaa !90
  store ptr %63, ptr getelementptr inbounds nuw (%struct.sapi_request_info, ptr getelementptr inbounds nuw (%struct._sapi_globals_struct, ptr @sapi_globals, i32 0, i32 1), i32 0, i32 11), align 8, !tbaa !83
  %64 = load ptr, ptr %1, align 8, !tbaa !90
  %65 = getelementptr inbounds nuw %struct._sapi_post_entry, ptr %64, i32 0, i32 2
  %66 = load ptr, ptr %65, align 8, !tbaa !91
  store ptr %66, ptr %6, align 8, !tbaa !16
  br label %82

67:                                               ; preds = %56
  store ptr null, ptr getelementptr inbounds nuw (%struct.sapi_request_info, ptr getelementptr inbounds nuw (%struct._sapi_globals_struct, ptr @sapi_globals, i32 0, i32 1), i32 0, i32 11), align 8, !tbaa !83
  %68 = load ptr, ptr getelementptr inbounds nuw (%struct._sapi_module_struct, ptr @sapi_module, i32 0, i32 21), align 8, !tbaa !92
  %69 = icmp ne ptr %68, null
  %70 = xor i1 %69, true
  %71 = xor i1 %70, true
  %72 = xor i1 %71, true
  %73 = zext i1 %72 to i32
  %74 = sext i32 %73 to i64
  %75 = call i64 @llvm.expect.i64(i64 %74, i64 0)
  %76 = icmp ne i64 %75, 0
  br i1 %76, label %77, label %81

77:                                               ; preds = %67
  store ptr null, ptr getelementptr inbounds nuw (%struct.sapi_request_info, ptr getelementptr inbounds nuw (%struct._sapi_globals_struct, ptr @sapi_globals, i32 0, i32 1), i32 0, i32 12), align 8, !tbaa !84
  %78 = load ptr, ptr getelementptr inbounds nuw (%struct._sapi_module_struct, ptr @sapi_module, i32 0, i32 10), align 8, !tbaa !93
  %79 = load ptr, ptr %3, align 8, !tbaa !15
  call void (i32, ptr, ...) %78(i32 noundef 2, ptr noundef @.str.1, ptr noundef %79)
  %80 = load ptr, ptr %3, align 8, !tbaa !15
  call void @_efree(ptr noundef %80)
  store i32 1, ptr %9, align 4
  br label %101

81:                                               ; preds = %67
  br label %82

82:                                               ; preds = %81, %62
  %83 = load i8, ptr %5, align 1, !tbaa !28
  %84 = icmp ne i8 %83, 0
  br i1 %84, label %85, label %89

85:                                               ; preds = %82
  %86 = load i8, ptr %5, align 1, !tbaa !28
  %87 = load ptr, ptr %4, align 8, !tbaa !15
  %88 = getelementptr inbounds i8, ptr %87, i64 -1
  store i8 %86, ptr %88, align 1, !tbaa !28
  br label %89

89:                                               ; preds = %85, %82
  %90 = load ptr, ptr %3, align 8, !tbaa !15
  store ptr %90, ptr getelementptr inbounds nuw (%struct.sapi_request_info, ptr getelementptr inbounds nuw (%struct._sapi_globals_struct, ptr @sapi_globals, i32 0, i32 1), i32 0, i32 12), align 8, !tbaa !84
  %91 = load ptr, ptr %6, align 8, !tbaa !16
  %92 = icmp ne ptr %91, null
  br i1 %92, label %93, label %95

93:                                               ; preds = %89
  %94 = load ptr, ptr %6, align 8, !tbaa !16
  call void %94()
  br label %95

95:                                               ; preds = %93, %89
  %96 = load ptr, ptr getelementptr inbounds nuw (%struct._sapi_module_struct, ptr @sapi_module, i32 0, i32 21), align 8, !tbaa !92
  %97 = icmp ne ptr %96, null
  br i1 %97, label %98, label %100

98:                                               ; preds = %95
  %99 = load ptr, ptr getelementptr inbounds nuw (%struct._sapi_module_struct, ptr @sapi_module, i32 0, i32 21), align 8, !tbaa !92
  call void %99()
  br label %100

100:                                              ; preds = %98, %95
  store i32 0, ptr %9, align 4
  br label %101

101:                                              ; preds = %100, %77
  call void @llvm.lifetime.end.p0(i64 8, ptr %6) #15
  call void @llvm.lifetime.end.p0(i64 1, ptr %5) #15
  call void @llvm.lifetime.end.p0(i64 8, ptr %4) #15
  call void @llvm.lifetime.end.p0(i64 8, ptr %3) #15
  call void @llvm.lifetime.end.p0(i64 4, ptr %2) #15
  call void @llvm.lifetime.end.p0(i64 8, ptr %1) #15
  %102 = load i32, ptr %9, align 4
  switch i32 %102, label %104 [
    i32 0, label %103
    i32 1, label %103
  ]

103:                                              ; preds = %101, %101
  ret void

104:                                              ; preds = %101
  unreachable
}