; Function Attrs: nounwind uwtable
define dso_local void @sapi_read_post_data() local_unnamed_addr #0 {
  %1 = load ptr, ptr getelementptr inbounds nuw (i8, ptr @sapi_globals, i64 64), align 8, !tbaa !77
  %2 = tail call i64 @strlen(ptr noundef nonnull dereferenceable(1) %1) #20
  %3 = and i64 %2, 4294967295
  %4 = tail call noalias ptr @_estrndup(ptr noundef nonnull %1, i64 noundef %3) #19
  %.not = icmp eq i64 %3, 0
  br i1 %.not, label %._crit_edge, label %.lr.ph

.lr.ph:                                           ; preds = %0
  %5 = trunc i64 %2 to i32
  %6 = ptrtoint ptr %4 to i64
  br label %7

7:                                                ; preds = %.lr.ph, %20
  %.040 = phi i32 [ %5, %.lr.ph ], [ %.1, %20 ]
  %.02639 = phi ptr [ %4, %.lr.ph ], [ %21, %20 ]
  %.02838 = phi i8 [ 0, %.lr.ph ], [ %.129, %20 ]
  %8 = load i8, ptr %.02639, align 1, !tbaa !20
  switch i8 %8, label %13 [
    i8 59, label %9
    i8 44, label %9
    i8 32, label %9
  ]

9:                                                ; preds = %7, %7, %7
  %10 = ptrtoint ptr %.02639 to i64
  %11 = sub i64 %10, %6
  %12 = trunc i64 %11 to i32
  br label %20

13:                                               ; preds = %7
  %14 = tail call ptr @__ctype_tolower_loc() #21
  %15 = load ptr, ptr %14, align 8, !tbaa !78
  %16 = sext i8 %8 to i64
  %17 = getelementptr inbounds i32, ptr %15, i64 %16
  %18 = load i32, ptr %17, align 4, !tbaa !15
  %19 = trunc i32 %18 to i8
  br label %20

20:                                               ; preds = %9, %13
  %storemerge = phi i8 [ 0, %9 ], [ %19, %13 ]
  %.129 = phi i8 [ %8, %9 ], [ %.02838, %13 ]
  %.1 = phi i32 [ %12, %9 ], [ %.040, %13 ]
  store i8 %storemerge, ptr %.02639, align 1, !tbaa !20
  %21 = getelementptr inbounds nuw i8, ptr %.02639, i64 1
  %22 = zext i32 %.1 to i64
  %23 = getelementptr inbounds nuw i8, ptr %4, i64 %22
  %24 = icmp ult ptr %21, %23
  br i1 %24, label %7, label %._crit_edge

._crit_edge:                                      ; preds = %20, %0
  %.028.lcssa = phi i8 [ 0, %0 ], [ %.129, %20 ]
  %.026.lcssa = phi ptr [ %4, %0 ], [ %21, %20 ]
  %.lcssa = phi i64 [ 0, %0 ], [ %22, %20 ]
  %25 = tail call ptr @zend_hash_str_find(ptr noundef nonnull getelementptr inbounds nuw (i8, ptr @sapi_globals, i64 448), ptr noundef %4, i64 noundef range(i64 0, 4294967296) %.lcssa) #19
  %.not.i = icmp eq ptr %25, null
  br i1 %.not.i, label %30, label %26

26:                                               ; preds = %._crit_edge
  %27 = load ptr, ptr %25, align 8, !tbaa !20, !nonnull !80, !noundef !80
  store ptr %27, ptr getelementptr inbounds nuw (i8, ptr @sapi_globals, i64 80), align 8, !tbaa !73
  %28 = getelementptr inbounds nuw i8, ptr %27, i64 16
  %29 = load ptr, ptr %28, align 8, !tbaa !81
  br label %34

30:                                               ; preds = %._crit_edge
  store ptr null, ptr getelementptr inbounds nuw (i8, ptr @sapi_globals, i64 80), align 8, !tbaa !73
  %31 = load ptr, ptr getelementptr inbounds nuw (i8, ptr @sapi_module, i64 168), align 8, !tbaa !82
  %.not32 = icmp eq ptr %31, null
  br i1 %.not32, label %32, label %34, !prof !83

32:                                               ; preds = %30
  store ptr null, ptr getelementptr inbounds nuw (i8, ptr @sapi_globals, i64 88), align 8, !tbaa !76
  %33 = load ptr, ptr getelementptr inbounds nuw (i8, ptr @sapi_module, i64 80), align 8, !tbaa !84
  tail call void (i32, ptr, ...) %33(i32 noundef 2, ptr noundef nonnull @.str.1, ptr noundef %4) #19
  tail call void @_efree(ptr noundef %4) #19
  br label %42

34:                                               ; preds = %30, %26
  %.027 = phi ptr [ %29, %26 ], [ null, %30 ]
  %.not33 = icmp eq i8 %.028.lcssa, 0
  br i1 %.not33, label %37, label %35

35:                                               ; preds = %34
  %36 = getelementptr inbounds i8, ptr %.026.lcssa, i64 -1
  store i8 %.028.lcssa, ptr %36, align 1, !tbaa !20
  br label %37

37:                                               ; preds = %35, %34
  store ptr %4, ptr getelementptr inbounds nuw (i8, ptr @sapi_globals, i64 88), align 8, !tbaa !76
  %.not34 = icmp eq ptr %.027, null
  br i1 %.not34, label %39, label %38

38:                                               ; preds = %37
  tail call void %.027() #19
  br label %39

39:                                               ; preds = %38, %37
  %40 = load ptr, ptr getelementptr inbounds nuw (i8, ptr @sapi_module, i64 168), align 8, !tbaa !82
  %.not35 = icmp eq ptr %40, null
  br i1 %.not35, label %42, label %41

41:                                               ; preds = %39
  tail call void %40() #19
  br label %42

42:                                               ; preds = %39, %41, %32
  ret void
}